target datalayout = "e-m:e-p270:32:32-p271:32:32-p272:64:64-i64:64-i128:128-f80:128-n8:16:32:64-S128"
target triple = "x86_64-pc-linux-gnu"

%struct.mi_stats_s = type { %struct.mi_stat_count_s, %struct.mi_stat_count_s, %struct.mi_stat_count_s, %struct.mi_stat_count_s, %struct.mi_stat_count_s, %struct.mi_stat_count_s, %struct.mi_stat_count_s, %struct.mi_stat_count_s, %struct.mi_stat_count_s, %struct.mi_stat_count_s, %struct.mi_stat_count_s, %struct.mi_stat_count_s, %struct.mi_stat_count_s, %struct.mi_stat_count_s, %struct.mi_stat_count_s, %struct.mi_stat_counter_s, %struct.mi_stat_counter_s, %struct.mi_stat_counter_s, %struct.mi_stat_counter_s, %struct.mi_stat_counter_s, %struct.mi_stat_counter_s, %struct.mi_stat_counter_s, %struct.mi_stat_counter_s, %struct.mi_stat_counter_s, %struct.mi_stat_counter_s, %struct.mi_stat_counter_s, %struct.mi_stat_counter_s, %struct.mi_stat_counter_s, %struct.mi_stat_counter_s }
%struct.mi_stat_count_s = type { i64, i64, i64, i64 }
%struct.mi_stat_counter_s = type { i64, i64 }

@_mi_stats_main = external global %struct.mi_stats_s, align 64
@.str.8 = private unnamed_addr constant [121 x i8] c"unable to allocate OS memory (error: %d (0x%x), addr: %p, size: 0x%zx bytes, align: 0x%zx, commit: %d, allow large: %d)\0A\00", align 1

; Function Attrs: nounwind uwtable
define internal ptr @mi_os_prim_alloc_at(ptr noundef %0, i64 noundef %1, i64 noundef %2, i1 noundef zeroext %3, i1 noundef zeroext %4, ptr noundef %5, ptr noundef %6) #0 {
  %8 = alloca ptr, align 8
  %9 = alloca ptr, align 8
  %10 = alloca i64, align 8
  %11 = alloca i64, align 8
  %12 = alloca i8, align 1
  %13 = alloca i8, align 1
  %14 = alloca ptr, align 8
  %15 = alloca ptr, align 8
  %16 = alloca ptr, align 8
  %17 = alloca i32, align 4
  store ptr %0, ptr %9, align 8, !tbaa !20
  store i64 %1, ptr %10, align 8, !tbaa !14
  store i64 %2, ptr %11, align 8, !tbaa !14
  %18 = zext i1 %3 to i8
  store i8 %18, ptr %12, align 1, !tbaa !16
  %19 = zext i1 %4 to i8
  store i8 %19, ptr %13, align 1, !tbaa !16
  store ptr %5, ptr %14, align 8, !tbaa !33
  store ptr %6, ptr %15, align 8, !tbaa !33
  %20 = load i64, ptr %10, align 8, !tbaa !14
  %21 = icmp eq i64 %20, 0
  br i1 %21, label %22, label %23

22:                                               ; preds = %7
  store ptr null, ptr %8, align 8
  br label %69

23:                                               ; preds = %7
  %24 = load i8, ptr %12, align 1, !tbaa !16, !range !9, !noundef !10
  %25 = trunc i8 %24 to i1
  br i1 %25, label %27, label %26

26:                                               ; preds = %23
  store i8 0, ptr %13, align 1, !tbaa !16
  br label %27

27:                                               ; preds = %26, %23
  %28 = load i64, ptr %11, align 8, !tbaa !14
  %29 = icmp eq i64 %28, 0
  br i1 %29, label %30, label %31

30:                                               ; preds = %27
  store i64 1, ptr %11, align 8, !tbaa !14
  br label %31

31:                                               ; preds = %30, %27
  %32 = load ptr, ptr %15, align 8, !tbaa !33
  store i8 0, ptr %32, align 1, !tbaa !16
  call void @llvm.lifetime.start.p0(i64 8, ptr %16) #9
  store ptr null, ptr %16, align 8, !tbaa !20
  call void @llvm.lifetime.start.p0(i64 4, ptr %17) #9
  %33 = load ptr, ptr %9, align 8, !tbaa !20
  %34 = load i64, ptr %10, align 8, !tbaa !14
  %35 = load i64, ptr %11, align 8, !tbaa !14
  %36 = load i8, ptr %12, align 1, !tbaa !16, !range !9, !noundef !10
  %37 = trunc i8 %36 to i1
  %38 = load i8, ptr %13, align 1, !tbaa !16, !range !9, !noundef !10
  %39 = trunc i8 %38 to i1
  %40 = load ptr, ptr %14, align 8, !tbaa !33
  %41 = load ptr, ptr %15, align 8, !tbaa !33
  %42 = call i32 @_mi_prim_alloc(ptr noundef %33, i64 noundef %34, i64 noundef %35, i1 noundef zeroext %37, i1 noundef zeroext %39, ptr noundef %40, ptr noundef %41, ptr noundef %16) #8
  store i32 %42, ptr %17, align 4, !tbaa !25
  %43 = load i32, ptr %17, align 4, !tbaa !25
  %44 = icmp ne i32 %43, 0
  br i1 %44, label %45, label %57

45:                                               ; preds = %31
  %46 = load i32, ptr %17, align 4, !tbaa !25
  %47 = load i32, ptr %17, align 4, !tbaa !25
  %48 = load ptr, ptr %9, align 8, !tbaa !20
  %49 = load i64, ptr %10, align 8, !tbaa !14
  %50 = load i64, ptr %11, align 8, !tbaa !14
  %51 = load i8, ptr %12, align 1, !tbaa !16, !range !9, !noundef !10
  %52 = trunc i8 %51 to i1
  %53 = zext i1 %52 to i32
  %54 = load i8, ptr %13, align 1, !tbaa !16, !range !9, !noundef !10
  %55 = trunc i8 %54 to i1
  %56 = zext i1 %55 to i32
  call void (ptr, ...) @_mi_warning_message(ptr noundef @.str.8, i32 noundef %46, i32 noundef %47, ptr noundef %48, i64 noundef %49, i64 noundef %50, i32 noundef %53, i32 noundef %56) #8
  br label %57

57:                                               ; preds = %45, %31
  call void @_mi_stat_counter_increase(ptr noundef getelementptr inbounds nuw (%struct.mi_stats_s, ptr @_mi_stats_main, i32 0, i32 16), i64 noundef 1) #8
  %58 = load ptr, ptr %16, align 8, !tbaa !20
  %59 = icmp ne ptr %58, null
  br i1 %59, label %60, label %67

60:                                               ; preds = %57
  %61 = load i64, ptr %10, align 8, !tbaa !14
  call void @_mi_stat_increase(ptr noundef getelementptr inbounds nuw (%struct.mi_stats_s, ptr @_mi_stats_main, i32 0, i32 2), i64 noundef %61) #8
  %62 = load i8, ptr %12, align 1, !tbaa !16, !range !9, !noundef !10
  %63 = trunc i8 %62 to i1
  br i1 %63, label %64, label %66

64:                                               ; preds = %60
  %65 = load i64, ptr %10, align 8, !tbaa !14
  call void @_mi_stat_increase(ptr noundef getelementptr inbounds nuw (%struct.mi_stats_s, ptr @_mi_stats_main, i32 0, i32 3), i64 noundef %65) #8
  br label %66

66:                                               ; preds = %64, %60
  br label %67

67:                                               ; preds = %66, %57
  %68 = load ptr, ptr %16, align 8, !tbaa !20
  store ptr %68, ptr %8, align 8
  call void @llvm.lifetime.end.p0(i64 4, ptr %17) #9
  call void @llvm.lifetime.end.p0(i64 8, ptr %16) #9
  br label %69

69:                                               ; preds = %67, %22
  %70 = load ptr, ptr %8, align 8
  ret ptr %70
}

; Function Attrs: nounwind uwtable
define internal ptr @mi_os_prim_alloc(i64 noundef %0, i64 noundef %1, i1 noundef zeroext %2, i1 noundef zeroext %3, ptr noundef %4, ptr noundef %5) #0 {
  %7 = alloca i64, align 8
  %8 = alloca i64, align 8
  %9 = alloca i8, align 1
  %10 = alloca i8, align 1
  %11 = alloca ptr, align 8
  %12 = alloca ptr, align 8
  store i64 %0, ptr %7, align 8, !tbaa !14
  store i64 %1, ptr %8, align 8, !tbaa !14
  %13 = zext i1 %2 to i8
  store i8 %13, ptr %9, align 1, !tbaa !16
  %14 = zext i1 %3 to i8
  store i8 %14, ptr %10, align 1, !tbaa !16
  store ptr %4, ptr %11, align 8, !tbaa !33
  store ptr %5, ptr %12, align 8, !tbaa !33
  %15 = load i64, ptr %7, align 8, !tbaa !14
  %16 = load i64, ptr %8, align 8, !tbaa !14
  %17 = load i8, ptr %9, align 1, !tbaa !16, !range !9, !noundef !10
  %18 = trunc i8 %17 to i1
  %19 = load i8, ptr %10, align 1, !tbaa !16, !range !9, !noundef !10
  %20 = trunc i8 %19 to i1
  %21 = load ptr, ptr %11, align 8, !tbaa !33
  %22 = load ptr, ptr %12, align 8, !tbaa !33
  %23 = call ptr @mi_os_prim_alloc_at(ptr noundef null, i64 noundef %15, i64 noundef %16, i1 noundef zeroext %18, i1 noundef zeroext %20, ptr noundef %21, ptr noundef %22) #8
  ret ptr %23
}