; Function Attrs: nounwind uwtable
define internal fastcc ptr @mi_os_prim_alloc(i64 noundef %0, i64 noundef %1, i1 noundef zeroext %2, i1 noundef zeroext %3, ptr noundef nonnull %4, ptr noundef nonnull %5) unnamed_addr #1 {
  %7 = alloca ptr, align 8
  %8 = icmp eq i64 %0, 0
  br i1 %8, label %mi_os_prim_alloc_at.exit, label %9

9:                                                ; preds = %6
  %spec.select.i = and i1 %2, %3
  %spec.store.select.i = tail call i64 @llvm.umax.i64(i64 %1, i64 1)
  store i8 0, ptr %5, align 1, !tbaa !24
  call void @llvm.lifetime.start.p0(i64 8, ptr nonnull %7) #9
  store ptr null, ptr %7, align 8, !tbaa !26
  %10 = call i32 @_mi_prim_alloc(ptr noundef null, i64 noundef %0, i64 noundef %spec.store.select.i, i1 noundef zeroext %2, i1 noundef zeroext %spec.select.i, ptr noundef nonnull %4, ptr noundef nonnull %5, ptr noundef nonnull %7) #7
  %.not.i = icmp eq i32 %10, 0
  br i1 %.not.i, label %14, label %11

11:                                               ; preds = %9
  %12 = zext i1 %2 to i32
  %13 = zext i1 %spec.select.i to i32
  call void (ptr, ...) @_mi_warning_message(ptr noundef nonnull @.str.8, i32 noundef %10, i32 noundef %10, ptr noundef null, i64 noundef %0, i64 noundef %spec.store.select.i, i32 noundef %12, i32 noundef %13) #7
  br label %14

14:                                               ; preds = %11, %9
  call void @_mi_stat_counter_increase(ptr noundef nonnull getelementptr inbounds nuw (i8, ptr @_mi_stats_main, i64 496), i64 noundef 1) #7
  %15 = load ptr, ptr %7, align 8, !tbaa !26
  %.not25.i = icmp eq ptr %15, null
  br i1 %.not25.i, label %18, label %16

16:                                               ; preds = %14
  call void @_mi_stat_increase(ptr noundef nonnull getelementptr inbounds nuw (i8, ptr @_mi_stats_main, i64 64), i64 noundef %0) #7
  br i1 %2, label %17, label %18

17:                                               ; preds = %16
  call void @_mi_stat_increase(ptr noundef nonnull getelementptr inbounds nuw (i8, ptr @_mi_stats_main, i64 96), i64 noundef %0) #7
  br label %18

18:                                               ; preds = %17, %16, %14
  %19 = load ptr, ptr %7, align 8, !tbaa !26
  call void @llvm.lifetime.end.p0(i64 8, ptr nonnull %7) #9
  br label %mi_os_prim_alloc_at.exit

mi_os_prim_alloc_at.exit:                         ; preds = %6, %18
  %.0.i = phi ptr [ %19, %18 ], [ null, %6 ]
  ret ptr %.0.i
}